; ModuleID = 'source-C-CXX/11/1125.c'
source_filename = "source-C-CXX/11/1125.c"
target datalayout = "e-m:e-p270:32:32-p271:32:32-p272:64:64-i64:64-f80:128-n8:16:32:64-S128"
target triple = "x86_64-pc-linux-gnu"

@.str = private unnamed_addr constant [3 x i8] c"%d\00", align 1
@.str.1 = private unnamed_addr constant [4 x i8] c"%d\0A\00", align 1

; Function Attrs: nofree nounwind sspstrong uwtable
define dso_local i32 @main() local_unnamed_addr #0 {
  %1 = alloca i32, align 4
  %2 = alloca [100 x [15 x i32]], align 16
  %3 = bitcast i32* %1 to i8*
  call void @llvm.lifetime.start.p0i8(i64 4, i8* nonnull %3) #3
  %4 = bitcast [100 x [15 x i32]]* %2 to i8*
  call void @llvm.lifetime.start.p0i8(i64 6000, i8* nonnull %4) #3
  br label %5

5:                                                ; preds = %46, %0
  %6 = phi i32 [ 0, %0 ], [ %49, %46 ]
  %7 = phi i32 [ 0, %0 ], [ %51, %46 ]
  %8 = call i32 (i8*, ...) @__isoc99_scanf(i8* getelementptr inbounds ([3 x i8], [3 x i8]* @.str, i64 0, i64 0), i32* nonnull %1)
  %9 = load i32, i32* %1, align 4, !tbaa !5
  %10 = icmp eq i32 %9, 0
  %11 = sext i32 %6 to i64
  br i1 %10, label %12, label %38

12:                                               ; preds = %5
  %13 = icmp sgt i32 %7, 0
  br i1 %13, label %14, label %41

14:                                               ; preds = %12
  %15 = zext i32 %7 to i64
  br label %16

16:                                               ; preds = %14, %35
  %17 = phi i64 [ 0, %14 ], [ %36, %35 ]
  %18 = phi i32 [ 0, %14 ], [ %32, %35 ]
  %19 = getelementptr inbounds [100 x [15 x i32]], [100 x [15 x i32]]* %2, i64 0, i64 %11, i64 %17
  %20 = load i32, i32* %19, align 4, !tbaa !5
  br label %21

21:                                               ; preds = %16, %21
  %22 = phi i64 [ 0, %16 ], [ %33, %21 ]
  %23 = phi i32 [ %18, %16 ], [ %32, %21 ]
  %24 = getelementptr inbounds [100 x [15 x i32]], [100 x [15 x i32]]* %2, i64 0, i64 %11, i64 %22
  %25 = load i32, i32* %24, align 4, !tbaa !5
  %26 = sdiv i32 %20, %25
  %27 = srem i32 %20, %25
  %28 = icmp eq i32 %26, 2
  %29 = icmp eq i32 %27, 0
  %30 = and i1 %28, %29
  %31 = zext i1 %30 to i32
  %32 = add nsw i32 %23, %31
  %33 = add nuw nsw i64 %22, 1
  %34 = icmp eq i64 %33, %15
  br i1 %34, label %35, label %21, !llvm.loop !9

35:                                               ; preds = %21
  %36 = add nuw nsw i64 %17, 1
  %37 = icmp eq i64 %36, %15
  br i1 %37, label %41, label %16, !llvm.loop !11

38:                                               ; preds = %5
  %39 = sext i32 %7 to i64
  %40 = getelementptr inbounds [100 x [15 x i32]], [100 x [15 x i32]]* %2, i64 0, i64 %11, i64 %39
  store i32 %9, i32* %40, align 4, !tbaa !5
  br label %46

41:                                               ; preds = %35, %12
  %42 = phi i32 [ 0, %12 ], [ %32, %35 ]
  %43 = call i32 (i8*, ...) @printf(i8* nonnull dereferenceable(1) getelementptr inbounds ([4 x i8], [4 x i8]* @.str.1, i64 0, i64 0), i32 %42)
  %44 = add nsw i32 %6, 1
  %45 = load i32, i32* %1, align 4, !tbaa !5
  br label %46

46:                                               ; preds = %38, %41
  %47 = phi i32 [ %45, %41 ], [ %9, %38 ]
  %48 = phi i32 [ -1, %41 ], [ %7, %38 ]
  %49 = phi i32 [ %44, %41 ], [ %6, %38 ]
  %50 = icmp ne i32 %47, -1
  %51 = add nsw i32 %48, 1
  %52 = icmp slt i32 %48, 15
  %53 = select i1 %50, i1 %52, i1 false
  br i1 %53, label %5, label %54, !llvm.loop !12

54:                                               ; preds = %46
  call void @llvm.lifetime.end.p0i8(i64 6000, i8* nonnull %4) #3
  call void @llvm.lifetime.end.p0i8(i64 4, i8* nonnull %3) #3
  ret i32 0
}

; Function Attrs: argmemonly mustprogress nofree nosync nounwind willreturn
declare void @llvm.lifetime.start.p0i8(i64 immarg, i8* nocapture) #1

; Function Attrs: nofree nounwind
declare noundef i32 @__isoc99_scanf(i8* nocapture noundef readonly, ...) local_unnamed_addr #2

; Function Attrs: nofree nounwind
declare noundef i32 @printf(i8* nocapture noundef readonly, ...) local_unnamed_addr #2

; Function Attrs: argmemonly mustprogress nofree nosync nounwind willreturn
declare void @llvm.lifetime.end.p0i8(i64 immarg, i8* nocapture) #1


!llvm.module.flags = !{!0, !1, !2, !3}
!llvm.ident = !{!4}

!0 = !{i32 1, !"wchar_size", i32 4}
!1 = !{i32 7, !"PIC Level", i32 2}
!2 = !{i32 7, !"PIE Level", i32 2}
!3 = !{i32 7, !"uwtable", i32 1}
!4 = !{!"clang version 13.0.0"}
!5 = !{!6, !6, i64 0}
!6 = !{!"int", !7, i64 0}
!7 = !{!"omnipotent char", !8, i64 0}
!8 = !{!"Simple C/C++ TBAA"}
!9 = distinct !{!9, !10}
!10 = !{!"llvm.loop.mustprogress"}
!11 = distinct !{!11, !10}
!12 = distinct !{!12, !10}
